; Function Attrs: nounwind sspstrong uwtable
define dso_local void @tcg_gen_subi_i64(ptr noundef %0, ptr noundef %1, i64 noundef %2) local_unnamed_addr #2 {
  %4 = icmp eq i64 %2, 0
  br i1 %4, label %5, label %17

5:                                                ; preds = %3
  %6 = icmp eq ptr %0, %1
  br i1 %6, label %tcg_gen_addi_i64.exit, label %7

7:                                                ; preds = %5
  %8 = tail call align 8 ptr @llvm.threadlocal.address.p0(ptr align 8 @tcg_ctx)
  %9 = load ptr, ptr %8, align 8
  %10 = ptrtoint ptr %0 to i64
  %11 = getelementptr inbounds nuw i8, ptr %9, i64 %10
  %12 = ptrtoint ptr %11 to i64
  %13 = ptrtoint ptr %1 to i64
  %14 = getelementptr inbounds nuw i8, ptr %9, i64 %13
  %15 = ptrtoint ptr %14 to i64
  %16 = tail call ptr @tcg_gen_op2(i32 noundef 63, i32 noundef 1, i64 noundef %12, i64 noundef %15)
  br label %tcg_gen_addi_i64.exit

17:                                               ; preds = %3
  %18 = sub i64 0, %2
  %19 = tail call ptr @tcg_constant_i64(i64 noundef %18) #6
  %20 = tail call align 8 ptr @llvm.threadlocal.address.p0(ptr align 8 @tcg_ctx)
  %21 = load ptr, ptr %20, align 8
  %22 = ptrtoint ptr %0 to i64
  %23 = getelementptr inbounds nuw i8, ptr %21, i64 %22
  %24 = ptrtoint ptr %23 to i64
  %25 = ptrtoint ptr %1 to i64
  %26 = getelementptr inbounds nuw i8, ptr %21, i64 %25
  %27 = ptrtoint ptr %26 to i64
  %28 = ptrtoint ptr %19 to i64
  %29 = getelementptr inbounds nuw i8, ptr %21, i64 %28
  %30 = ptrtoint ptr %29 to i64
  %31 = tail call ptr @tcg_gen_op3(i32 noundef 78, i32 noundef 1, i64 noundef %24, i64 noundef %27, i64 noundef %30)
  br label %tcg_gen_addi_i64.exit

tcg_gen_addi_i64.exit:                            ; preds = %5, %7, %17
  ret void
}